target datalayout = "e-m:e-p270:32:32-p271:32:32-p272:64:64-i64:64-i128:128-f80:128-n8:16:32:64-S128"
target triple = "x86_64-pc-linux-gnu"

%"class.icu_77::RegexMatcher" = type { %"class.icu_77::UObject", ptr, ptr, ptr, ptr, ptr, i64, i32, i64, i64, i64, i64, i64, i64, i64, i64, i8, i8, i8, i64, i64, i64, i64, i8, i8, ptr, ptr, ptr, [8 x i64], i32, i32, i32, i32, ptr, ptr, ptr, ptr, i8, i8, i32, ptr, ptr }
%"class.icu_77::UObject" = type { ptr }
%"class.icu_77::RegexPattern" = type { %"class.icu_77::UObject", ptr, ptr, i32, ptr, %"class.icu_77::UnicodeString", ptr, ptr, i32, i32, i32, i32, ptr, i32, i32, i32, ptr, i32, ptr, i8, ptr }
%"class.icu_77::UnicodeString" = type { %"class.icu_77::Replaceable", %"union.icu_77::UnicodeString::StackBufferOrFields" }
%"class.icu_77::Replaceable" = type { %"class.icu_77::UObject" }
%"union.icu_77::UnicodeString::StackBufferOrFields" = type { %struct.anon.0, [32 x i8] }
%struct.anon.0 = type { i16, i32, i32, ptr }
%"struct.icu_77::REStackFrame" = type { i64, i64, [1 x i64] }
%"class.icu_77::UVector64" = type { %"class.icu_77::UObject", i32, i32, i32, ptr }

; Function Attrs: inlinehint mustprogress uwtable
define linkonce_odr noundef signext i8 @_ZN6icu_779UVector6414ensureCapacityEiR10UErrorCode(ptr noundef nonnull align 8 dereferenceable(32) %0, i32 noundef %1, ptr noundef nonnull align 4 dereferenceable(4) %2) #3 comdat align 2 {
  %4 = alloca i8, align 1
  %5 = alloca ptr, align 8
  %6 = alloca i32, align 4
  %7 = alloca ptr, align 8
  store ptr %0, ptr %5, align 8, !tbaa !193
  store i32 %1, ptr %6, align 4, !tbaa !14
  store ptr %2, ptr %7, align 8, !tbaa !22
  %8 = load ptr, ptr %5, align 8
  %9 = load i32, ptr %6, align 4, !tbaa !14
  %10 = icmp sge i32 %9, 0
  br i1 %10, label %11, label %17

11:                                               ; preds = %3
  %12 = getelementptr inbounds nuw %"class.icu_77::UVector64", ptr %8, i32 0, i32 2
  %13 = load i32, ptr %12, align 4, !tbaa !208
  %14 = load i32, ptr %6, align 4, !tbaa !14
  %15 = icmp sge i32 %13, %14
  br i1 %15, label %16, label %17

16:                                               ; preds = %11
  store i8 1, ptr %4, align 1
  br label %21

17:                                               ; preds = %11, %3
  %18 = load i32, ptr %6, align 4, !tbaa !14
  %19 = load ptr, ptr %7, align 8, !tbaa !22
  %20 = call noundef signext i8 @_ZN6icu_779UVector6414expandCapacityEiR10UErrorCode(ptr noundef nonnull align 8 dereferenceable(32) %8, i32 noundef %18, ptr noundef nonnull align 4 dereferenceable(4) %19)
  store i8 %20, ptr %4, align 1
  br label %21

21:                                               ; preds = %17, %16
  %22 = load i8, ptr %4, align 1
  ret i8 %22
}

; Function Attrs: inlinehint mustprogress nounwind uwtable
define internal noundef signext i8 @_ZL9U_FAILURE10UErrorCode(i32 noundef %0) #2 {
  %2 = alloca i32, align 4
  store i32 %0, ptr %2, align 4, !tbaa !15
  %3 = load i32, ptr %2, align 4, !tbaa !15
  %4 = icmp sgt i32 %3, 0
  %5 = zext i1 %4 to i8
  ret i8 %5
}

; Function Attrs: inlinehint mustprogress uwtable
define linkonce_odr noundef ptr @_ZN6icu_779UVector6412reserveBlockEiR10UErrorCode(ptr noundef nonnull align 8 dereferenceable(32) %0, i32 noundef %1, ptr noundef nonnull align 4 dereferenceable(4) %2) #3 comdat align 2 {
  %4 = alloca ptr, align 8
  %5 = alloca ptr, align 8
  %6 = alloca i32, align 4
  %7 = alloca ptr, align 8
  %8 = alloca ptr, align 8
  store ptr %0, ptr %5, align 8, !tbaa !193
  store i32 %1, ptr %6, align 4, !tbaa !14
  store ptr %2, ptr %7, align 8, !tbaa !22
  %9 = load ptr, ptr %5, align 8
  %10 = getelementptr inbounds nuw %"class.icu_77::UVector64", ptr %9, i32 0, i32 1
  %11 = load i32, ptr %10, align 8, !tbaa !194
  %12 = load i32, ptr %6, align 4, !tbaa !14
  %13 = add nsw i32 %11, %12
  %14 = load ptr, ptr %7, align 8, !tbaa !22
  %15 = call noundef signext i8 @_ZN6icu_779UVector6414ensureCapacityEiR10UErrorCode(ptr noundef nonnull align 8 dereferenceable(32) %9, i32 noundef %13, ptr noundef nonnull align 4 dereferenceable(4) %14)
  %16 = sext i8 %15 to i32
  %17 = icmp eq i32 %16, 0
  br i1 %17, label %18, label %19

18:                                               ; preds = %3
  store ptr null, ptr %4, align 8
  br label %31

19:                                               ; preds = %3
  call void @llvm.lifetime.start.p0(i64 8, ptr %8) #11
  %20 = getelementptr inbounds nuw %"class.icu_77::UVector64", ptr %9, i32 0, i32 4
  %21 = load ptr, ptr %20, align 8, !tbaa !196
  %22 = getelementptr inbounds nuw %"class.icu_77::UVector64", ptr %9, i32 0, i32 1
  %23 = load i32, ptr %22, align 8, !tbaa !194
  %24 = sext i32 %23 to i64
  %25 = getelementptr inbounds i64, ptr %21, i64 %24
  store ptr %25, ptr %8, align 8, !tbaa !151
  %26 = load i32, ptr %6, align 4, !tbaa !14
  %27 = getelementptr inbounds nuw %"class.icu_77::UVector64", ptr %9, i32 0, i32 1
  %28 = load i32, ptr %27, align 8, !tbaa !194
  %29 = add nsw i32 %28, %26
  store i32 %29, ptr %27, align 8, !tbaa !194
  %30 = load ptr, ptr %8, align 8, !tbaa !151
  store ptr %30, ptr %4, align 8
  call void @llvm.lifetime.end.p0(i64 8, ptr %8) #11
  br label %31

31:                                               ; preds = %19, %18
  %32 = load ptr, ptr %4, align 8
  ret ptr %32
}

; Function Attrs: mustprogress uwtable
define noundef ptr @_ZN6icu_7712RegexMatcher10resetStackEv(ptr noundef nonnull align 8 dereferenceable(336) %0) #1 align 2 {
  %2 = alloca ptr, align 8
  %3 = alloca ptr, align 8
  %4 = alloca ptr, align 8
  %5 = alloca i32, align 4
  %6 = alloca i32, align 4
  store ptr %0, ptr %3, align 8, !tbaa !23
  %7 = load ptr, ptr %3, align 8
  %8 = getelementptr inbounds nuw %"class.icu_77::RegexMatcher", ptr %7, i32 0, i32 25
  %9 = load ptr, ptr %8, align 8, !tbaa !73
  call void @_ZN6icu_779UVector6417removeAllElementsEv(ptr noundef nonnull align 8 dereferenceable(32) %9)
  call void @llvm.lifetime.start.p0(i64 8, ptr %4) #11
  %10 = getelementptr inbounds nuw %"class.icu_77::RegexMatcher", ptr %7, i32 0, i32 25
  %11 = load ptr, ptr %10, align 8, !tbaa !73
  %12 = getelementptr inbounds nuw %"class.icu_77::RegexMatcher", ptr %7, i32 0, i32 1
  %13 = load ptr, ptr %12, align 8, !tbaa !38
  %14 = getelementptr inbounds nuw %"class.icu_77::RegexPattern", ptr %13, i32 0, i32 10
  %15 = load i32, ptr %14, align 8, !tbaa !102
  %16 = getelementptr inbounds nuw %"class.icu_77::RegexMatcher", ptr %7, i32 0, i32 39
  %17 = call noundef ptr @_ZN6icu_779UVector6412reserveBlockEiR10UErrorCode(ptr noundef nonnull align 8 dereferenceable(32) %11, i32 noundef %15, ptr noundef nonnull align 4 dereferenceable(4) %16)
  store ptr %17, ptr %4, align 8, !tbaa !154
  %18 = getelementptr inbounds nuw %"class.icu_77::RegexMatcher", ptr %7, i32 0, i32 39
  %19 = load i32, ptr %18, align 4, !tbaa !29
  %20 = call noundef signext i8 @_ZL9U_FAILURE10UErrorCode(i32 noundef %19)
  %21 = icmp ne i8 %20, 0
  br i1 %21, label %22, label %23

22:                                               ; preds = %1
  store ptr null, ptr %2, align 8
  store i32 1, ptr %5, align 4
  br label %43

23:                                               ; preds = %1
  call void @llvm.lifetime.start.p0(i64 4, ptr %6) #11
  store i32 0, ptr %6, align 4, !tbaa !14
  br label %24

24:                                               ; preds = %38, %23
  %25 = load i32, ptr %6, align 4, !tbaa !14
  %26 = getelementptr inbounds nuw %"class.icu_77::RegexMatcher", ptr %7, i32 0, i32 1
  %27 = load ptr, ptr %26, align 8, !tbaa !38
  %28 = getelementptr inbounds nuw %"class.icu_77::RegexPattern", ptr %27, i32 0, i32 10
  %29 = load i32, ptr %28, align 8, !tbaa !102
  %30 = sub nsw i32 %29, 2
  %31 = icmp slt i32 %25, %30
  br i1 %31, label %32, label %41

32:                                               ; preds = %24
  %33 = load ptr, ptr %4, align 8, !tbaa !154
  %34 = getelementptr inbounds nuw %"struct.icu_77::REStackFrame", ptr %33, i32 0, i32 2
  %35 = load i32, ptr %6, align 4, !tbaa !14
  %36 = sext i32 %35 to i64
  %37 = getelementptr inbounds [1 x i64], ptr %34, i64 0, i64 %36
  store i64 -1, ptr %37, align 8, !tbaa !18
  br label %38

38:                                               ; preds = %32
  %39 = load i32, ptr %6, align 4, !tbaa !14
  %40 = add nsw i32 %39, 1
  store i32 %40, ptr %6, align 4, !tbaa !14
  br label %24, !llvm.loop !192

41:                                               ; preds = %24
  %42 = load ptr, ptr %4, align 8, !tbaa !154
  store ptr %42, ptr %2, align 8
  store i32 1, ptr %5, align 4
  call void @llvm.lifetime.end.p0(i64 4, ptr %6) #11
  br label %43

43:                                               ; preds = %41, %22
  call void @llvm.lifetime.end.p0(i64 8, ptr %4) #11
  %44 = load ptr, ptr %2, align 8
  ret ptr %44
}