; Function Attrs: mustprogress uwtable
define noundef ptr @_ZN6icu_7712RegexMatcher10resetStackEv(ptr noundef nonnull align 8 dereferenceable(336) %0) local_unnamed_addr #1 align 2 {
  %2 = getelementptr inbounds nuw i8, ptr %0, i64 176
  %3 = load ptr, ptr %2, align 8, !tbaa !64
  tail call void @_ZN6icu_779UVector6417removeAllElementsEv(ptr noundef nonnull align 8 dereferenceable(32) %3)
  %4 = load ptr, ptr %2, align 8, !tbaa !64
  %5 = getelementptr inbounds nuw i8, ptr %0, i64 8
  %6 = load ptr, ptr %5, align 8, !tbaa !42
  %7 = getelementptr inbounds nuw i8, ptr %6, i64 128
  %8 = load i32, ptr %7, align 8, !tbaa !74
  %9 = getelementptr inbounds nuw i8, ptr %0, i64 316
  %10 = getelementptr inbounds nuw i8, ptr %4, i64 8
  %11 = load i32, ptr %10, align 8, !tbaa !134
  %12 = add nsw i32 %11, %8
  %13 = icmp slt i32 %12, 0
  %14 = getelementptr inbounds nuw i8, ptr %4, i64 12
  %15 = load i32, ptr %14, align 4
  %.not.i.i = icmp slt i32 %15, %12
  %or.cond.i.i = select i1 %13, i1 true, i1 %.not.i.i
  br i1 %or.cond.i.i, label %_ZN6icu_779UVector6414ensureCapacityEiR10UErrorCode.exit.i, label %_ZN6icu_779UVector6414ensureCapacityEiR10UErrorCode.exit.thread.i

_ZN6icu_779UVector6414ensureCapacityEiR10UErrorCode.exit.i: ; preds = %1
  %16 = tail call noundef signext i8 @_ZN6icu_779UVector6414expandCapacityEiR10UErrorCode(ptr noundef nonnull align 8 dereferenceable(32) %4, i32 noundef %12, ptr noundef nonnull align 4 dereferenceable(4) %9)
  %17 = icmp eq i8 %16, 0
  br i1 %17, label %_ZN6icu_779UVector6412reserveBlockEiR10UErrorCode.exit, label %_ZN6icu_779UVector6414ensureCapacityEiR10UErrorCode.exit._ZN6icu_779UVector6414ensureCapacityEiR10UErrorCode.exit.thread_crit_edge.i

_ZN6icu_779UVector6414ensureCapacityEiR10UErrorCode.exit._ZN6icu_779UVector6414ensureCapacityEiR10UErrorCode.exit.thread_crit_edge.i: ; preds = %_ZN6icu_779UVector6414ensureCapacityEiR10UErrorCode.exit.i
  %.pre.i = load i32, ptr %10, align 8, !tbaa !134
  %.pre6.i = add nsw i32 %.pre.i, %8
  br label %_ZN6icu_779UVector6414ensureCapacityEiR10UErrorCode.exit.thread.i

_ZN6icu_779UVector6414ensureCapacityEiR10UErrorCode.exit.thread.i: ; preds = %_ZN6icu_779UVector6414ensureCapacityEiR10UErrorCode.exit._ZN6icu_779UVector6414ensureCapacityEiR10UErrorCode.exit.thread_crit_edge.i, %1
  %.pre-phi.i = phi i32 [ %.pre6.i, %_ZN6icu_779UVector6414ensureCapacityEiR10UErrorCode.exit._ZN6icu_779UVector6414ensureCapacityEiR10UErrorCode.exit.thread_crit_edge.i ], [ %12, %1 ]
  %18 = phi i32 [ %.pre.i, %_ZN6icu_779UVector6414ensureCapacityEiR10UErrorCode.exit._ZN6icu_779UVector6414ensureCapacityEiR10UErrorCode.exit.thread_crit_edge.i ], [ %11, %1 ]
  %19 = getelementptr inbounds nuw i8, ptr %4, i64 24
  %20 = load ptr, ptr %19, align 8, !tbaa !131
  %21 = sext i32 %18 to i64
  %22 = getelementptr inbounds i64, ptr %20, i64 %21
  store i32 %.pre-phi.i, ptr %10, align 8, !tbaa !134
  br label %_ZN6icu_779UVector6412reserveBlockEiR10UErrorCode.exit

_ZN6icu_779UVector6412reserveBlockEiR10UErrorCode.exit: ; preds = %_ZN6icu_779UVector6414ensureCapacityEiR10UErrorCode.exit.i, %_ZN6icu_779UVector6414ensureCapacityEiR10UErrorCode.exit.thread.i
  %.0.i = phi ptr [ %22, %_ZN6icu_779UVector6414ensureCapacityEiR10UErrorCode.exit.thread.i ], [ null, %_ZN6icu_779UVector6414ensureCapacityEiR10UErrorCode.exit.i ]
  %23 = load i32, ptr %9, align 4, !tbaa !39
  %24 = icmp slt i32 %23, 1
  br i1 %24, label %.preheader, label %.loopexit

.preheader:                                       ; preds = %_ZN6icu_779UVector6412reserveBlockEiR10UErrorCode.exit
  %25 = load ptr, ptr %5, align 8, !tbaa !42
  %26 = getelementptr inbounds nuw i8, ptr %25, i64 128
  %27 = load i32, ptr %26, align 8, !tbaa !74
  %28 = icmp sgt i32 %27, 2
  br i1 %28, label %.lr.ph, label %.loopexit

.lr.ph:                                           ; preds = %.preheader
  %29 = add nsw i32 %27, -2
  %30 = getelementptr inbounds nuw i8, ptr %.0.i, i64 16
  %31 = zext nneg i32 %29 to i64
  %32 = shl nuw nsw i64 %31, 3
  tail call void @llvm.memset.p0.i64(ptr nonnull align 8 %30, i8 -1, i64 %32, i1 false), !tbaa !110
  br label %.loopexit

.loopexit:                                        ; preds = %.lr.ph, %.preheader, %_ZN6icu_779UVector6412reserveBlockEiR10UErrorCode.exit
  %.06 = phi ptr [ null, %_ZN6icu_779UVector6412reserveBlockEiR10UErrorCode.exit ], [ %.0.i, %.preheader ], [ %.0.i, %.lr.ph ]
  ret ptr %.06
}